target datalayout = "e-m:e-p270:32:32-p271:32:32-p272:64:64-i64:64-i128:128-f80:128-n8:16:32:64-S128"
target triple = "x86_64-unknown-linux-gnu"

%"class.EA::StdC::CallbackManager::CallbackVector" = type { ptr, ptr, ptr, [8 x ptr] }

; Function Attrs: mustprogress nounwind uwtable
define dso_local void @_ZN2EA4StdC15CallbackManager14CallbackVectorD2Ev(ptr noundef nonnull align 8 dereferenceable(88) %this) unnamed_addr #1 align 2 {
entry:
  %this.addr = alloca ptr, align 8
  store ptr %this, ptr %this.addr, align 8
  %this1 = load ptr, ptr %this.addr, align 8
  %mpBegin = getelementptr inbounds %"class.EA::StdC::CallbackManager::CallbackVector", ptr %this1, i32 0, i32 0
  %0 = load ptr, ptr %mpBegin, align 8
  %mLocalBuffer = getelementptr inbounds %"class.EA::StdC::CallbackManager::CallbackVector", ptr %this1, i32 0, i32 3
  %arraydecay = getelementptr inbounds [8 x ptr], ptr %mLocalBuffer, i64 0, i64 0
  %cmp = icmp ne ptr %0, %arraydecay
  br i1 %cmp, label %if.then, label %if.end

if.then:                                          ; preds = %entry
  %mpBegin2 = getelementptr inbounds %"class.EA::StdC::CallbackManager::CallbackVector", ptr %this1, i32 0, i32 0
  %1 = load ptr, ptr %mpBegin2, align 8
  %isnull = icmp eq ptr %1, null
  br i1 %isnull, label %delete.end, label %delete.notnull

delete.notnull:                                   ; preds = %if.then
  call void @_ZdaPv(ptr noundef %1) #12
  br label %delete.end

delete.end:                                       ; preds = %delete.notnull, %if.then
  br label %if.end

if.end:                                           ; preds = %delete.end, %entry
  ret void
}