; Function Attrs: mustprogress nounwind uwtable
define dso_local void @_ZN2EA4StdC15CallbackManager14CallbackVectorD2Ev(ptr noundef nonnull readonly align 8 dereferenceable(88) %this) unnamed_addr #2 align 2 {
entry:
  %0 = load ptr, ptr %this, align 8
  %mLocalBuffer = getelementptr inbounds i8, ptr %this, i64 24
  %cmp.not = icmp eq ptr %0, %mLocalBuffer
  %isnull = icmp eq ptr %0, null
  %or.cond = or i1 %cmp.not, %isnull
  br i1 %or.cond, label %if.end, label %delete.notnull

delete.notnull:                                   ; preds = %entry
  tail call void @_ZdaPv(ptr noundef nonnull %0) #19
  br label %if.end

if.end:                                           ; preds = %delete.notnull, %entry
  ret void
}